target datalayout = "e-m:e-p270:32:32-p271:32:32-p272:64:64-i64:64-i128:128-f80:128-n8:16:32:64-S128"
target triple = "x86_64-pc-linux-gnu"

%"class.boost::json::storage_ptr" = type { i64 }
%"class.boost::json::monotonic_resource" = type { %"class.boost::container::pmr::memory_resource", %"struct.boost::json::monotonic_resource::block_base", ptr, i64, %"class.boost::json::storage_ptr" }
%"class.boost::container::pmr::memory_resource" = type { ptr }
%"struct.boost::json::monotonic_resource::block_base" = type { ptr, i64, i64, ptr }

@_ZN5boost4json6detail16default_resource9instance_E = global { ptr } { ptr getelementptr inbounds inrange(-16, 40) ({ [7 x ptr] }, ptr @_ZTVN5boost4json6detail16default_resourceE, i32 0, i32 0, i32 2) }, align 8

; Function Attrs: mustprogress nounwind uwtable
define linkonce_odr hidden noundef ptr @_ZN5boost4json6detail16default_resource3getEv() #2 comdat align 2 {
  ret ptr @_ZN5boost4json6detail16default_resource9instance_E
}

; Function Attrs: mustprogress nounwind uwtable
define linkonce_odr hidden noundef ptr @_ZNK5boost4json11storage_ptr3getEv(ptr noundef nonnull align 8 dereferenceable(8) %0) #2 comdat align 2 {
  %2 = alloca ptr, align 8
  %3 = alloca ptr, align 8
  store ptr %0, ptr %3, align 8, !tbaa !3
  %4 = load ptr, ptr %3, align 8
  %5 = getelementptr inbounds nuw %"class.boost::json::storage_ptr", ptr %4, i32 0, i32 0
  %6 = load i64, ptr %5, align 8, !tbaa !35
  %7 = icmp ne i64 %6, 0
  br i1 %7, label %8, label %13

8:                                                ; preds = %1
  %9 = getelementptr inbounds nuw %"class.boost::json::storage_ptr", ptr %4, i32 0, i32 0
  %10 = load i64, ptr %9, align 8, !tbaa !35
  %11 = and i64 %10, -4
  %12 = inttoptr i64 %11 to ptr
  store ptr %12, ptr %2, align 8
  br label %15

13:                                               ; preds = %1
  %14 = call noundef ptr @_ZN5boost4json6detail16default_resource3getEv() #10
  store ptr %14, ptr %2, align 8
  br label %15

15:                                               ; preds = %13, %8
  %16 = load ptr, ptr %2, align 8
  ret ptr %16
}

; Function Attrs: mustprogress uwtable
define linkonce_odr hidden void @_ZN5boost9container3pmr15memory_resource10deallocateEPvmm(ptr noundef nonnull align 8 dereferenceable(8) %0, ptr noundef %1, i64 noundef %2, i64 noundef %3) #5 comdat align 2 {
  %5 = alloca ptr, align 8
  %6 = alloca ptr, align 8
  %7 = alloca i64, align 8
  %8 = alloca i64, align 8
  store ptr %0, ptr %5, align 8, !tbaa !3
  store ptr %1, ptr %6, align 8, !tbaa !3
  store i64 %2, ptr %7, align 8, !tbaa !16
  store i64 %3, ptr %8, align 8, !tbaa !16
  %9 = load ptr, ptr %5, align 8
  %10 = load ptr, ptr %6, align 8, !tbaa !3
  %11 = load i64, ptr %7, align 8, !tbaa !16
  %12 = load i64, ptr %8, align 8, !tbaa !16
  %13 = load ptr, ptr %9, align 8, !tbaa !14
  %14 = getelementptr inbounds ptr, ptr %13, i64 3
  %15 = load ptr, ptr %14, align 8
  call void %15(ptr noundef nonnull align 8 dereferenceable(8) %9, ptr noundef %10, i64 noundef %11, i64 noundef %12)
  ret void
}

; Function Attrs: mustprogress nounwind uwtable
define linkonce_odr hidden noundef ptr @_ZNK5boost4json11storage_ptrptEv(ptr noundef nonnull align 8 dereferenceable(8) %0) #2 comdat align 2 {
  %2 = alloca ptr, align 8
  store ptr %0, ptr %2, align 8, !tbaa !3
  %3 = load ptr, ptr %2, align 8
  %4 = call noundef ptr @_ZNK5boost4json11storage_ptr3getEv(ptr noundef nonnull align 8 dereferenceable(8) %3) #10
  ret ptr %4
}

; Function Attrs: mustprogress nounwind uwtable
define void @_ZN5boost4json18monotonic_resource7releaseEv(ptr noundef nonnull align 8 dereferenceable(64) %0) #2 align 2 personality ptr @__gxx_personality_v0 {
  %2 = alloca ptr, align 8
  %3 = alloca ptr, align 8
  %4 = alloca ptr, align 8
  store ptr %0, ptr %2, align 8, !tbaa !3
  %5 = load ptr, ptr %2, align 8
  call void @llvm.lifetime.start.p0(i64 8, ptr %3) #10
  %6 = getelementptr inbounds nuw %"class.boost::json::monotonic_resource", ptr %5, i32 0, i32 2
  %7 = load ptr, ptr %6, align 8, !tbaa !69
  store ptr %7, ptr %3, align 8, !tbaa !3
  br label %8

8:                                                ; preds = %22, %1
  %9 = load ptr, ptr %3, align 8, !tbaa !3
  %10 = getelementptr inbounds nuw %"class.boost::json::monotonic_resource", ptr %5, i32 0, i32 1
  %11 = icmp ne ptr %9, %10
  br i1 %11, label %12, label %24

12:                                               ; preds = %8
  call void @llvm.lifetime.start.p0(i64 8, ptr %4) #10
  %13 = load ptr, ptr %3, align 8, !tbaa !3
  %14 = getelementptr inbounds nuw %"struct.boost::json::monotonic_resource::block_base", ptr %13, i32 0, i32 3
  %15 = load ptr, ptr %14, align 8, !tbaa !73
  store ptr %15, ptr %4, align 8, !tbaa !3
  %16 = getelementptr inbounds nuw %"class.boost::json::monotonic_resource", ptr %5, i32 0, i32 4
  %17 = call noundef ptr @_ZNK5boost4json11storage_ptrptEv(ptr noundef nonnull align 8 dereferenceable(8) %16) #10
  %18 = load ptr, ptr %3, align 8, !tbaa !3
  %19 = load ptr, ptr %3, align 8, !tbaa !3
  %20 = getelementptr inbounds nuw %"struct.boost::json::monotonic_resource::block_base", ptr %19, i32 0, i32 2
  %21 = load i64, ptr %20, align 8, !tbaa !74
  invoke void @_ZN5boost9container3pmr15memory_resource10deallocateEPvmm(ptr noundef nonnull align 8 dereferenceable(8) %17, ptr noundef %18, i64 noundef %21, i64 noundef 16)
          to label %22 unwind label %46

22:                                               ; preds = %12
  %23 = load ptr, ptr %4, align 8, !tbaa !3
  store ptr %23, ptr %3, align 8, !tbaa !3
  call void @llvm.lifetime.end.p0(i64 8, ptr %4) #10
  br label %8, !llvm.loop !75

24:                                               ; preds = %8
  %25 = getelementptr inbounds nuw %"class.boost::json::monotonic_resource", ptr %5, i32 0, i32 1
  %26 = getelementptr inbounds nuw %"struct.boost::json::monotonic_resource::block_base", ptr %25, i32 0, i32 0
  %27 = load ptr, ptr %26, align 8, !tbaa !76
  %28 = getelementptr inbounds nuw %"class.boost::json::monotonic_resource", ptr %5, i32 0, i32 1
  %29 = getelementptr inbounds nuw %"struct.boost::json::monotonic_resource::block_base", ptr %28, i32 0, i32 2
  %30 = load i64, ptr %29, align 8, !tbaa !77
  %31 = getelementptr inbounds nuw %"class.boost::json::monotonic_resource", ptr %5, i32 0, i32 1
  %32 = getelementptr inbounds nuw %"struct.boost::json::monotonic_resource::block_base", ptr %31, i32 0, i32 1
  %33 = load i64, ptr %32, align 8, !tbaa !78
  %34 = sub i64 %30, %33
  %35 = sub i64 0, %34
  %36 = getelementptr inbounds i8, ptr %27, i64 %35
  %37 = getelementptr inbounds nuw %"class.boost::json::monotonic_resource", ptr %5, i32 0, i32 1
  %38 = getelementptr inbounds nuw %"struct.boost::json::monotonic_resource::block_base", ptr %37, i32 0, i32 0
  store ptr %36, ptr %38, align 8, !tbaa !76
  %39 = getelementptr inbounds nuw %"class.boost::json::monotonic_resource", ptr %5, i32 0, i32 1
  %40 = getelementptr inbounds nuw %"struct.boost::json::monotonic_resource::block_base", ptr %39, i32 0, i32 2
  %41 = load i64, ptr %40, align 8, !tbaa !77
  %42 = getelementptr inbounds nuw %"class.boost::json::monotonic_resource", ptr %5, i32 0, i32 1
  %43 = getelementptr inbounds nuw %"struct.boost::json::monotonic_resource::block_base", ptr %42, i32 0, i32 1
  store i64 %41, ptr %43, align 8, !tbaa !78
  %44 = getelementptr inbounds nuw %"class.boost::json::monotonic_resource", ptr %5, i32 0, i32 1
  %45 = getelementptr inbounds nuw %"class.boost::json::monotonic_resource", ptr %5, i32 0, i32 2
  store ptr %44, ptr %45, align 8, !tbaa !69
  call void @llvm.lifetime.end.p0(i64 8, ptr %3) #10
  ret void

46:                                               ; preds = %12
  %47 = landingpad { ptr, i32 }
          catch ptr null
  %48 = extractvalue { ptr, i32 } %47, 0
  call void @__clang_call_terminate(ptr %48) #34
  unreachable
}