; Function Attrs: mustprogress nounwind uwtable
define void @_ZN5boost4json18monotonic_resource7releaseEv(ptr noundef nonnull align 8 dereferenceable(64) %0) local_unnamed_addr #7 align 2 personality ptr @__gxx_personality_v0 {
  %2 = getelementptr inbounds nuw i8, ptr %0, i64 40
  %3 = load ptr, ptr %2, align 8, !tbaa !88
  %4 = getelementptr inbounds nuw i8, ptr %0, i64 8
  %5 = getelementptr inbounds nuw i8, ptr %0, i64 56
  br label %_ZN5boost9container3pmr15memory_resource10deallocateEPvmm.exit

_ZN5boost9container3pmr15memory_resource10deallocateEPvmm.exit: ; preds = %6, %1
  %.0 = phi ptr [ %3, %1 ], [ %8, %6 ]
  %.not = icmp eq ptr %.0, %4
  br i1 %.not, label %17, label %6

6:                                                ; preds = %_ZN5boost9container3pmr15memory_resource10deallocateEPvmm.exit
  %7 = getelementptr inbounds nuw i8, ptr %.0, i64 24
  %8 = load ptr, ptr %7, align 8, !tbaa !92
  %9 = load i64, ptr %5, align 8, !tbaa !17
  %.not.i.i = icmp eq i64 %9, 0
  %10 = and i64 %9, -4
  %11 = inttoptr i64 %10 to ptr
  %.0.i.i = select i1 %.not.i.i, ptr @_ZN5boost4json6detail16default_resource9instance_E, ptr %11
  %12 = getelementptr inbounds nuw i8, ptr %.0, i64 16
  %13 = load i64, ptr %12, align 8, !tbaa !93
  %14 = load ptr, ptr %.0.i.i, align 8, !tbaa !19
  %15 = getelementptr inbounds i8, ptr %14, i64 24
  %16 = load ptr, ptr %15, align 8
  invoke void %16(ptr noundef nonnull align 8 dereferenceable(8) %.0.i.i, ptr noundef nonnull %.0, i64 noundef %13, i64 noundef 16)
          to label %_ZN5boost9container3pmr15memory_resource10deallocateEPvmm.exit unwind label %24

17:                                               ; preds = %_ZN5boost9container3pmr15memory_resource10deallocateEPvmm.exit
  %18 = load ptr, ptr %4, align 8, !tbaa !94
  %19 = getelementptr inbounds nuw i8, ptr %0, i64 24
  %20 = load i64, ptr %19, align 8, !tbaa !95
  %21 = getelementptr inbounds nuw i8, ptr %0, i64 16
  %22 = load i64, ptr %21, align 8, !tbaa !96
  %.neg = sub i64 %22, %20
  %23 = getelementptr inbounds i8, ptr %18, i64 %.neg
  store ptr %23, ptr %4, align 8, !tbaa !94
  store i64 %20, ptr %21, align 8, !tbaa !96
  store ptr %4, ptr %2, align 8, !tbaa !88
  ret void

24:                                               ; preds = %6
  %25 = landingpad { ptr, i32 }
          catch ptr null
  %26 = extractvalue { ptr, i32 } %25, 0
  tail call void @__clang_call_terminate(ptr %26) #50
  unreachable
}